; Function Attrs: mustprogress nounwind willreturn uwtable
define hidden noundef i32 @zm_shutdown_file(i32 noundef %0, i32 noundef %1) local_unnamed_addr #3 {
  %3 = load ptr, ptr getelementptr inbounds nuw (i8, ptr @file_globals, i64 128), align 8, !tbaa !22
  %.not.i = icmp eq ptr %3, null
  br i1 %.not.i, label %file_globals_dtor.exit, label %4

4:                                                ; preds = %2
  tail call void @free(ptr noundef nonnull %3) #18
  br label %file_globals_dtor.exit

file_globals_dtor.exit:                           ; preds = %2, %4
  ret i32 0
}